; Function Attrs: mustprogress nofree norecurse nosync nounwind willreturn memory(argmem: readwrite) uwtable
define void @_ZN6icu_7720CollationDataBuilder13clearContextsEv(ptr noundef nonnull align 8 captures(none) dereferenceable(640) %0) local_unnamed_addr #9 align 2 {
  %2 = getelementptr inbounds nuw i8, ptr %0, i64 352
  %3 = load i16, ptr %2, align 8, !tbaa !74
  %4 = and i16 %3, 1
  %.not.i = icmp eq i16 %4, 0
  %5 = and i16 %3, 30
  %storemerge.i = select i1 %.not.i, i16 %5, i16 2
  store i16 %storemerge.i, ptr %2, align 8, !tbaa !74
  %6 = getelementptr inbounds nuw i8, ptr %0, i64 408
  %7 = load i32, ptr %6, align 8, !tbaa !95
  %8 = add nsw i32 %7, 1
  store i32 %8, ptr %6, align 8, !tbaa !95
  ret void
}